target datalayout = "e-m:e-p270:32:32-p271:32:32-p272:64:64-i64:64-i128:128-f80:128-n8:16:32:64-S128"
target triple = "x86_64-pc-linux-gnu"

%struct._zval_struct = type { %union._zend_value, %union.anon.3, %union.anon.6 }
%union._zend_value = type { i64 }
%union.anon.3 = type { i32 }
%union.anon.6 = type { i32 }
%struct._zend_array = type { %struct._zend_refcounted_h, %union.anon.0, i32, %union.anon.1, i32, i32, i32, i32, i64, ptr }
%struct._zend_refcounted_h = type { i32, %union.anon }
%union.anon = type { i32 }
%union.anon.0 = type { i32 }
%union.anon.1 = type { ptr }
%struct.zend_get_gc_buffer = type { ptr, ptr, ptr }
%struct._spl_SplObjectStorage = type { %struct._zend_array, i64, i32, i64, ptr, %struct._zend_object }
%struct._zend_object = type { %struct._zend_refcounted_h, i32, ptr, ptr, ptr, [1 x %struct._zval_struct] }
%struct._spl_SplObjectStorageElement = type { ptr, %struct._zval_struct }
%struct.anon.4 = type { i8, i8, %union.anon.5 }
%union.anon.5 = type { i16 }

; Function Attrs: nounwind uwtable
define internal ptr @spl_object_storage_from_obj(ptr noundef %0) #0 {
  %2 = alloca ptr, align 8
  store ptr %0, ptr %2, align 8
  %3 = load ptr, ptr %2, align 8
  %4 = getelementptr inbounds i8, ptr %3, i64 -88
  ret ptr %4
}

; Function Attrs: nounwind uwtable
define internal ptr @spl_object_storage_get_gc(ptr noundef %0, ptr noundef %1, ptr noundef %2) #0 {
  %4 = alloca ptr, align 8
  %5 = alloca ptr, align 8
  %6 = alloca ptr, align 8
  %7 = alloca ptr, align 8
  %8 = alloca ptr, align 8
  %9 = alloca ptr, align 8
  %10 = alloca ptr, align 8
  %11 = alloca ptr, align 8
  %12 = alloca i32, align 4
  %13 = alloca ptr, align 8
  %14 = alloca ptr, align 8
  %15 = alloca ptr, align 8
  %16 = alloca ptr, align 8
  %17 = alloca ptr, align 8
  %18 = alloca ptr, align 8
  %19 = alloca ptr, align 8
  %20 = alloca ptr, align 8
  %21 = alloca ptr, align 8
  %22 = alloca ptr, align 8
  %23 = alloca ptr, align 8
  %24 = alloca i32, align 4
  %25 = alloca i64, align 8
  %26 = alloca ptr, align 8
  store ptr %0, ptr %17, align 8
  store ptr %1, ptr %18, align 8
  store ptr %2, ptr %19, align 8
  %27 = load ptr, ptr %17, align 8
  %28 = call ptr @spl_object_storage_from_obj(ptr noundef %27)
  store ptr %28, ptr %20, align 8
  %29 = call ptr @zend_get_gc_buffer_create()
  store ptr %29, ptr %22, align 8
  br label %30

30:                                               ; preds = %3
  %31 = load ptr, ptr %20, align 8
  %32 = getelementptr inbounds %struct._spl_SplObjectStorage, ptr %31, i32 0, i32 0
  store ptr %32, ptr %23, align 8
  %33 = load ptr, ptr %23, align 8
  %34 = getelementptr inbounds %struct._zend_array, ptr %33, i32 0, i32 4
  %35 = load i32, ptr %34, align 8
  store i32 %35, ptr %24, align 4
  %36 = load ptr, ptr %23, align 8
  %37 = getelementptr inbounds %struct._zend_array, ptr %36, i32 0, i32 1
  %38 = load i32, ptr %37, align 8
  %39 = xor i32 %38, -1
  %40 = and i32 %39, 4
  %41 = zext i32 %40 to i64
  %42 = mul i64 %41, 4
  %43 = add i64 16, %42
  store i64 %43, ptr %25, align 8
  %44 = load ptr, ptr %23, align 8
  %45 = getelementptr inbounds %struct._zend_array, ptr %44, i32 0, i32 3
  %46 = load ptr, ptr %45, align 8
  store ptr %46, ptr %26, align 8
  br label %47

47:                                               ; preds = %125, %30
  %48 = load i32, ptr %24, align 4
  %49 = icmp ugt i32 %48, 0
  br i1 %49, label %50, label %131

50:                                               ; preds = %47
  %51 = load ptr, ptr %26, align 8
  store ptr %51, ptr %16, align 8
  %52 = load ptr, ptr %16, align 8
  %53 = getelementptr inbounds %struct._zval_struct, ptr %52, i32 0, i32 1
  %54 = load i8, ptr %53, align 8
  %55 = zext i8 %54 to i32
  %56 = icmp eq i32 %55, 0
  %57 = xor i1 %56, true
  %58 = xor i1 %57, true
  %59 = zext i1 %58 to i32
  %60 = sext i32 %59 to i64
  %61 = icmp ne i64 %60, 0
  br i1 %61, label %62, label %63

62:                                               ; preds = %50
  br label %125

63:                                               ; preds = %50
  %64 = load ptr, ptr %26, align 8
  %65 = getelementptr inbounds %struct._zval_struct, ptr %64, i32 0, i32 0
  %66 = load ptr, ptr %65, align 8
  store ptr %66, ptr %21, align 8
  %67 = load ptr, ptr %22, align 8
  %68 = load ptr, ptr %21, align 8
  %69 = getelementptr inbounds %struct._spl_SplObjectStorageElement, ptr %68, i32 0, i32 0
  %70 = load ptr, ptr %69, align 8
  store ptr %67, ptr %13, align 8
  store ptr %70, ptr %14, align 8
  %71 = load ptr, ptr %13, align 8
  %72 = load ptr, ptr %71, align 8
  %73 = load ptr, ptr %13, align 8
  %74 = getelementptr inbounds %struct.zend_get_gc_buffer, ptr %73, i32 0, i32 1
  %75 = load ptr, ptr %74, align 8
  %76 = icmp eq ptr %72, %75
  br i1 %76, label %77, label %79

77:                                               ; preds = %63
  %78 = load ptr, ptr %13, align 8
  call void @zend_get_gc_buffer_grow(ptr noundef %78) #10
  br label %79

79:                                               ; preds = %77, %63
  %80 = load ptr, ptr %13, align 8
  %81 = load ptr, ptr %80, align 8
  store ptr %81, ptr %15, align 8
  %82 = load ptr, ptr %14, align 8
  %83 = load ptr, ptr %15, align 8
  store ptr %82, ptr %83, align 8
  %84 = load ptr, ptr %15, align 8
  %85 = getelementptr inbounds %struct._zval_struct, ptr %84, i32 0, i32 1
  store i32 776, ptr %85, align 8
  %86 = load ptr, ptr %13, align 8
  %87 = load ptr, ptr %86, align 8
  %88 = getelementptr inbounds %struct._zval_struct, ptr %87, i32 1
  store ptr %88, ptr %86, align 8
  %89 = load ptr, ptr %22, align 8
  %90 = load ptr, ptr %21, align 8
  %91 = getelementptr inbounds %struct._spl_SplObjectStorageElement, ptr %90, i32 0, i32 1
  store ptr %89, ptr %7, align 8
  store ptr %91, ptr %8, align 8
  %92 = load ptr, ptr %8, align 8
  %93 = getelementptr inbounds %struct._zval_struct, ptr %92, i32 0, i32 1
  %94 = getelementptr inbounds %struct.anon.4, ptr %93, i32 0, i32 1
  %95 = load i8, ptr %94, align 1
  %96 = zext i8 %95 to i32
  %97 = icmp ne i32 %96, 0
  br i1 %97, label %98, label %124

98:                                               ; preds = %79
  %99 = load ptr, ptr %7, align 8
  %100 = load ptr, ptr %99, align 8
  %101 = load ptr, ptr %7, align 8
  %102 = getelementptr inbounds %struct.zend_get_gc_buffer, ptr %101, i32 0, i32 1
  %103 = load ptr, ptr %102, align 8
  %104 = icmp eq ptr %100, %103
  br i1 %104, label %105, label %107

105:                                              ; preds = %98
  %106 = load ptr, ptr %7, align 8
  call void @zend_get_gc_buffer_grow(ptr noundef %106) #10
  br label %107

107:                                              ; preds = %105, %98
  %108 = load ptr, ptr %7, align 8
  %109 = load ptr, ptr %108, align 8
  store ptr %109, ptr %9, align 8
  %110 = load ptr, ptr %8, align 8
  store ptr %110, ptr %10, align 8
  %111 = load ptr, ptr %10, align 8
  %112 = load ptr, ptr %111, align 8
  store ptr %112, ptr %11, align 8
  %113 = load ptr, ptr %10, align 8
  %114 = getelementptr inbounds %struct._zval_struct, ptr %113, i32 0, i32 1
  %115 = load i32, ptr %114, align 8
  store i32 %115, ptr %12, align 4
  %116 = load ptr, ptr %11, align 8
  %117 = load ptr, ptr %9, align 8
  store ptr %116, ptr %117, align 8
  %118 = load i32, ptr %12, align 4
  %119 = load ptr, ptr %9, align 8
  %120 = getelementptr inbounds %struct._zval_struct, ptr %119, i32 0, i32 1
  store i32 %118, ptr %120, align 8
  %121 = load ptr, ptr %7, align 8
  %122 = load ptr, ptr %121, align 8
  %123 = getelementptr inbounds %struct._zval_struct, ptr %122, i32 1
  store ptr %123, ptr %121, align 8
  br label %124

124:                                              ; preds = %107, %79
  br label %125

125:                                              ; preds = %124, %62
  %126 = load ptr, ptr %26, align 8
  %127 = load i64, ptr %25, align 8
  %128 = getelementptr inbounds i8, ptr %126, i64 %127
  store ptr %128, ptr %26, align 8
  %129 = load i32, ptr %24, align 4
  %130 = add i32 %129, -1
  store i32 %130, ptr %24, align 4
  br label %47

131:                                              ; preds = %47
  br label %132

132:                                              ; preds = %131
  %133 = load ptr, ptr %22, align 8
  %134 = load ptr, ptr %18, align 8
  %135 = load ptr, ptr %19, align 8
  store ptr %133, ptr %4, align 8
  store ptr %134, ptr %5, align 8
  store ptr %135, ptr %6, align 8
  %136 = load ptr, ptr %4, align 8
  %137 = getelementptr inbounds %struct.zend_get_gc_buffer, ptr %136, i32 0, i32 2
  %138 = load ptr, ptr %137, align 8
  %139 = load ptr, ptr %5, align 8
  store ptr %138, ptr %139, align 8
  %140 = load ptr, ptr %4, align 8
  %141 = load ptr, ptr %140, align 8
  %142 = load ptr, ptr %4, align 8
  %143 = getelementptr inbounds %struct.zend_get_gc_buffer, ptr %142, i32 0, i32 2
  %144 = load ptr, ptr %143, align 8
  %145 = ptrtoint ptr %141 to i64
  %146 = ptrtoint ptr %144 to i64
  %147 = sub i64 %145, %146
  %148 = sdiv exact i64 %147, 16
  %149 = trunc i64 %148 to i32
  %150 = load ptr, ptr %6, align 8
  store i32 %149, ptr %150, align 4
  %151 = load ptr, ptr %17, align 8
  %152 = call ptr @zend_std_get_properties(ptr noundef %151)
  ret ptr %152
}