; Function Attrs: nounwind uwtable
define internal ptr @spl_object_storage_get_gc(ptr noundef %0, ptr nocapture noundef writeonly %1, ptr nocapture noundef writeonly %2) #0 {
  %4 = tail call ptr @zend_get_gc_buffer_create() #10
  %5 = getelementptr inbounds i8, ptr %0, i64 -64
  %6 = load i32, ptr %5, align 8
  %7 = getelementptr inbounds i8, ptr %0, i64 -80
  %8 = load i32, ptr %7, align 8
  %9 = shl i32 %8, 2
  %10 = and i32 %9, 16
  %11 = xor i32 %10, 16
  %narrow = add nuw nsw i32 %11, 16
  %12 = zext nneg i32 %narrow to i64
  %.not47 = icmp eq i32 %6, 0
  br i1 %.not47, label %._crit_edge, label %.lr.ph

.lr.ph:                                           ; preds = %3
  %13 = getelementptr inbounds i8, ptr %0, i64 -72
  %14 = load ptr, ptr %13, align 8
  %15 = getelementptr inbounds i8, ptr %4, i64 8
  br label %16

16:                                               ; preds = %.lr.ph, %47
  %.049 = phi ptr [ %14, %.lr.ph ], [ %48, %47 ]
  %.04548 = phi i32 [ %6, %.lr.ph ], [ %49, %47 ]
  %17 = getelementptr inbounds i8, ptr %.049, i64 8
  %18 = load i8, ptr %17, align 8
  %19 = icmp eq i8 %18, 0
  br i1 %19, label %47, label %20

20:                                               ; preds = %16
  %21 = load ptr, ptr %.049, align 8
  %22 = load ptr, ptr %21, align 8
  %23 = load ptr, ptr %4, align 8
  %24 = load ptr, ptr %15, align 8
  %25 = icmp eq ptr %23, %24
  br i1 %25, label %26, label %27

26:                                               ; preds = %20
  tail call void @zend_get_gc_buffer_grow(ptr noundef nonnull %4) #10
  %.pre = load ptr, ptr %4, align 8
  br label %27

27:                                               ; preds = %26, %20
  %28 = phi ptr [ %.pre, %26 ], [ %23, %20 ]
  store ptr %22, ptr %28, align 8
  %29 = getelementptr inbounds i8, ptr %28, i64 8
  store i32 776, ptr %29, align 8
  %30 = load ptr, ptr %4, align 8
  %31 = getelementptr inbounds i8, ptr %30, i64 16
  store ptr %31, ptr %4, align 8
  %32 = getelementptr inbounds i8, ptr %21, i64 8
  %33 = getelementptr inbounds i8, ptr %21, i64 16
  %34 = getelementptr inbounds i8, ptr %21, i64 17
  %35 = load i8, ptr %34, align 1
  %.not46 = icmp eq i8 %35, 0
  br i1 %.not46, label %47, label %36

36:                                               ; preds = %27
  %37 = load ptr, ptr %15, align 8
  %38 = icmp eq ptr %31, %37
  br i1 %38, label %39, label %40

39:                                               ; preds = %36
  tail call void @zend_get_gc_buffer_grow(ptr noundef nonnull %4) #10
  %.pre50 = load ptr, ptr %4, align 8
  br label %40

40:                                               ; preds = %39, %36
  %41 = phi ptr [ %.pre50, %39 ], [ %31, %36 ]
  %42 = load ptr, ptr %32, align 8
  %43 = load i32, ptr %33, align 8
  store ptr %42, ptr %41, align 8
  %44 = getelementptr inbounds i8, ptr %41, i64 8
  store i32 %43, ptr %44, align 8
  %45 = load ptr, ptr %4, align 8
  %46 = getelementptr inbounds i8, ptr %45, i64 16
  store ptr %46, ptr %4, align 8
  br label %47

47:                                               ; preds = %27, %40, %16
  %48 = getelementptr inbounds i8, ptr %.049, i64 %12
  %49 = add i32 %.04548, -1
  %.not = icmp eq i32 %49, 0
  br i1 %.not, label %._crit_edge, label %16

._crit_edge:                                      ; preds = %47, %3
  %50 = getelementptr inbounds i8, ptr %4, i64 16
  %51 = load ptr, ptr %50, align 8
  store ptr %51, ptr %1, align 8
  %52 = load ptr, ptr %4, align 8
  %53 = ptrtoint ptr %52 to i64
  %54 = ptrtoint ptr %51 to i64
  %55 = sub i64 %53, %54
  %56 = lshr exact i64 %55, 4
  %57 = trunc i64 %56 to i32
  store i32 %57, ptr %2, align 4
  %58 = tail call ptr @zend_std_get_properties(ptr noundef %0) #10
  ret ptr %58
}